target datalayout = "e-m:e-p270:32:32-p271:32:32-p272:64:64-i64:64-i128:128-f80:128-n8:16:32:64-S128"
target triple = "x86_64-pc-linux-gnu"

%struct.AVFilterContext = type { ptr, ptr, ptr, ptr, ptr, i32, ptr, ptr, i32, ptr, ptr, i32, i32, ptr, ptr, ptr, ptr, i32, ptr, i32, i32 }
%struct.MaskedMinMaxContext = type { ptr, i32, i32, [4 x i32], [4 x i32], [4 x i32], i32, i32, %struct.FFFrameSync, ptr }
%struct.FFFrameSync = type { ptr, ptr, i32, %struct.AVRational, i64, ptr, ptr, i32, i32, i8, i8, ptr, i32, i32, i32, i32 }
%struct.AVRational = type { i32, i32 }
%struct.AVChannelLayout = type { i32, i32, %union.anon.1, ptr }
%union.anon.1 = type { i64 }
%struct.ThreadData = type { ptr, ptr, ptr, ptr }
%struct.AVFrame = type { [8 x ptr], [8 x i32], ptr, i32, i32, i32, i32, i32, %struct.AVRational, i64, i64, %struct.AVRational, i32, ptr, i32, i32, [8 x ptr], ptr, i32, ptr, i32, i32, i32, i32, i32, i32, i32, i64, ptr, i32, ptr, ptr, i64, i64, i64, i64, ptr, %struct.AVChannelLayout, i64 }

; Function Attrs: nounwind uwtable
define internal i32 @maskedminmax_slice(ptr noundef %0, ptr noundef %1, i32 noundef %2, i32 noundef %3) #2 {
  %5 = alloca ptr, align 8
  %6 = alloca ptr, align 8
  %7 = alloca i32, align 4
  %8 = alloca i32, align 4
  %9 = alloca ptr, align 8
  %10 = alloca ptr, align 8
  %11 = alloca i32, align 4
  %12 = alloca i32, align 4
  %13 = alloca i64, align 8
  %14 = alloca i64, align 8
  %15 = alloca i64, align 8
  %16 = alloca i64, align 8
  %17 = alloca i32, align 4
  %18 = alloca i32, align 4
  %19 = alloca i32, align 4
  %20 = alloca i32, align 4
  %21 = alloca ptr, align 8
  %22 = alloca ptr, align 8
  %23 = alloca ptr, align 8
  %24 = alloca ptr, align 8
  %25 = alloca i32, align 4
  store ptr %0, ptr %5, align 8, !tbaa !4
  store ptr %1, ptr %6, align 8, !tbaa !105
  store i32 %2, ptr %7, align 4, !tbaa !44
  store i32 %3, ptr %8, align 4, !tbaa !44
  call void @llvm.lifetime.start.p0(i64 8, ptr %9) #9
  %26 = load ptr, ptr %5, align 8, !tbaa !4
  %27 = getelementptr inbounds nuw %struct.AVFilterContext, ptr %26, i32 0, i32 9
  %28 = load ptr, ptr %27, align 8, !tbaa !9
  store ptr %28, ptr %9, align 8, !tbaa !22
  call void @llvm.lifetime.start.p0(i64 8, ptr %10) #9
  %29 = load ptr, ptr %6, align 8, !tbaa !105
  store ptr %29, ptr %10, align 8, !tbaa !106
  call void @llvm.lifetime.start.p0(i64 4, ptr %11) #9
  store i32 0, ptr %11, align 4, !tbaa !44
  br label %30

30:                                               ; preds = %207, %4
  %31 = load i32, ptr %11, align 4, !tbaa !44
  %32 = load ptr, ptr %9, align 8, !tbaa !22
  %33 = getelementptr inbounds nuw %struct.MaskedMinMaxContext, ptr %32, i32 0, i32 6
  %34 = load i32, ptr %33, align 8, !tbaa !42
  %35 = icmp slt i32 %31, %34
  br i1 %35, label %37, label %36

36:                                               ; preds = %30
  store i32 2, ptr %12, align 4
  call void @llvm.lifetime.end.p0(i64 4, ptr %11) #9
  br label %210

37:                                               ; preds = %30
  call void @llvm.lifetime.start.p0(i64 8, ptr %13) #9
  %38 = load ptr, ptr %10, align 8, !tbaa !106
  %39 = getelementptr inbounds nuw %struct.ThreadData, ptr %38, i32 0, i32 0
  %40 = load ptr, ptr %39, align 8, !tbaa !94
  %41 = getelementptr inbounds nuw %struct.AVFrame, ptr %40, i32 0, i32 1
  %42 = load i32, ptr %11, align 4, !tbaa !44
  %43 = sext i32 %42 to i64
  %44 = getelementptr inbounds [8 x i32], ptr %41, i64 0, i64 %43
  %45 = load i32, ptr %44, align 4, !tbaa !44
  %46 = sext i32 %45 to i64
  store i64 %46, ptr %13, align 8, !tbaa !108
  call void @llvm.lifetime.start.p0(i64 8, ptr %14) #9
  %47 = load ptr, ptr %10, align 8, !tbaa !106
  %48 = getelementptr inbounds nuw %struct.ThreadData, ptr %47, i32 0, i32 1
  %49 = load ptr, ptr %48, align 8, !tbaa !96
  %50 = getelementptr inbounds nuw %struct.AVFrame, ptr %49, i32 0, i32 1
  %51 = load i32, ptr %11, align 4, !tbaa !44
  %52 = sext i32 %51 to i64
  %53 = getelementptr inbounds [8 x i32], ptr %50, i64 0, i64 %52
  %54 = load i32, ptr %53, align 4, !tbaa !44
  %55 = sext i32 %54 to i64
  store i64 %55, ptr %14, align 8, !tbaa !108
  call void @llvm.lifetime.start.p0(i64 8, ptr %15) #9
  %56 = load ptr, ptr %10, align 8, !tbaa !106
  %57 = getelementptr inbounds nuw %struct.ThreadData, ptr %56, i32 0, i32 2
  %58 = load ptr, ptr %57, align 8, !tbaa !97
  %59 = getelementptr inbounds nuw %struct.AVFrame, ptr %58, i32 0, i32 1
  %60 = load i32, ptr %11, align 4, !tbaa !44
  %61 = sext i32 %60 to i64
  %62 = getelementptr inbounds [8 x i32], ptr %59, i64 0, i64 %61
  %63 = load i32, ptr %62, align 4, !tbaa !44
  %64 = sext i32 %63 to i64
  store i64 %64, ptr %15, align 8, !tbaa !108
  call void @llvm.lifetime.start.p0(i64 8, ptr %16) #9
  %65 = load ptr, ptr %10, align 8, !tbaa !106
  %66 = getelementptr inbounds nuw %struct.ThreadData, ptr %65, i32 0, i32 3
  %67 = load ptr, ptr %66, align 8, !tbaa !98
  %68 = getelementptr inbounds nuw %struct.AVFrame, ptr %67, i32 0, i32 1
  %69 = load i32, ptr %11, align 4, !tbaa !44
  %70 = sext i32 %69 to i64
  %71 = getelementptr inbounds [8 x i32], ptr %68, i64 0, i64 %70
  %72 = load i32, ptr %71, align 4, !tbaa !44
  %73 = sext i32 %72 to i64
  store i64 %73, ptr %16, align 8, !tbaa !108
  call void @llvm.lifetime.start.p0(i64 4, ptr %17) #9
  %74 = load ptr, ptr %9, align 8, !tbaa !22
  %75 = getelementptr inbounds nuw %struct.MaskedMinMaxContext, ptr %74, i32 0, i32 4
  %76 = load i32, ptr %11, align 4, !tbaa !44
  %77 = sext i32 %76 to i64
  %78 = getelementptr inbounds [4 x i32], ptr %75, i64 0, i64 %77
  %79 = load i32, ptr %78, align 4, !tbaa !44
  store i32 %79, ptr %17, align 4, !tbaa !44
  call void @llvm.lifetime.start.p0(i64 4, ptr %18) #9
  %80 = load ptr, ptr %9, align 8, !tbaa !22
  %81 = getelementptr inbounds nuw %struct.MaskedMinMaxContext, ptr %80, i32 0, i32 5
  %82 = load i32, ptr %11, align 4, !tbaa !44
  %83 = sext i32 %82 to i64
  %84 = getelementptr inbounds [4 x i32], ptr %81, i64 0, i64 %83
  %85 = load i32, ptr %84, align 4, !tbaa !44
  store i32 %85, ptr %18, align 4, !tbaa !44
  call void @llvm.lifetime.start.p0(i64 4, ptr %19) #9
  %86 = load i32, ptr %18, align 4, !tbaa !44
  %87 = load i32, ptr %7, align 4, !tbaa !44
  %88 = mul nsw i32 %86, %87
  %89 = load i32, ptr %8, align 4, !tbaa !44
  %90 = sdiv i32 %88, %89
  store i32 %90, ptr %19, align 4, !tbaa !44
  call void @llvm.lifetime.start.p0(i64 4, ptr %20) #9
  %91 = load i32, ptr %18, align 4, !tbaa !44
  %92 = load i32, ptr %7, align 4, !tbaa !44
  %93 = add nsw i32 %92, 1
  %94 = mul nsw i32 %91, %93
  %95 = load i32, ptr %8, align 4, !tbaa !44
  %96 = sdiv i32 %94, %95
  store i32 %96, ptr %20, align 4, !tbaa !44
  call void @llvm.lifetime.start.p0(i64 8, ptr %21) #9
  %97 = load ptr, ptr %10, align 8, !tbaa !106
  %98 = getelementptr inbounds nuw %struct.ThreadData, ptr %97, i32 0, i32 0
  %99 = load ptr, ptr %98, align 8, !tbaa !94
  %100 = getelementptr inbounds nuw %struct.AVFrame, ptr %99, i32 0, i32 0
  %101 = load i32, ptr %11, align 4, !tbaa !44
  %102 = sext i32 %101 to i64
  %103 = getelementptr inbounds [8 x ptr], ptr %100, i64 0, i64 %102
  %104 = load ptr, ptr %103, align 8, !tbaa !53
  %105 = load i32, ptr %19, align 4, !tbaa !44
  %106 = sext i32 %105 to i64
  %107 = load i64, ptr %13, align 8, !tbaa !108
  %108 = mul nsw i64 %106, %107
  %109 = getelementptr inbounds i8, ptr %104, i64 %108
  store ptr %109, ptr %21, align 8, !tbaa !53
  call void @llvm.lifetime.start.p0(i64 8, ptr %22) #9
  %110 = load ptr, ptr %10, align 8, !tbaa !106
  %111 = getelementptr inbounds nuw %struct.ThreadData, ptr %110, i32 0, i32 1
  %112 = load ptr, ptr %111, align 8, !tbaa !96
  %113 = getelementptr inbounds nuw %struct.AVFrame, ptr %112, i32 0, i32 0
  %114 = load i32, ptr %11, align 4, !tbaa !44
  %115 = sext i32 %114 to i64
  %116 = getelementptr inbounds [8 x ptr], ptr %113, i64 0, i64 %115
  %117 = load ptr, ptr %116, align 8, !tbaa !53
  %118 = load i32, ptr %19, align 4, !tbaa !44
  %119 = sext i32 %118 to i64
  %120 = load i64, ptr %14, align 8, !tbaa !108
  %121 = mul nsw i64 %119, %120
  %122 = getelementptr inbounds i8, ptr %117, i64 %121
  store ptr %122, ptr %22, align 8, !tbaa !53
  call void @llvm.lifetime.start.p0(i64 8, ptr %23) #9
  %123 = load ptr, ptr %10, align 8, !tbaa !106
  %124 = getelementptr inbounds nuw %struct.ThreadData, ptr %123, i32 0, i32 2
  %125 = load ptr, ptr %124, align 8, !tbaa !97
  %126 = getelementptr inbounds nuw %struct.AVFrame, ptr %125, i32 0, i32 0
  %127 = load i32, ptr %11, align 4, !tbaa !44
  %128 = sext i32 %127 to i64
  %129 = getelementptr inbounds [8 x ptr], ptr %126, i64 0, i64 %128
  %130 = load ptr, ptr %129, align 8, !tbaa !53
  %131 = load i32, ptr %19, align 4, !tbaa !44
  %132 = sext i32 %131 to i64
  %133 = load i64, ptr %15, align 8, !tbaa !108
  %134 = mul nsw i64 %132, %133
  %135 = getelementptr inbounds i8, ptr %130, i64 %134
  store ptr %135, ptr %23, align 8, !tbaa !53
  call void @llvm.lifetime.start.p0(i64 8, ptr %24) #9
  %136 = load ptr, ptr %10, align 8, !tbaa !106
  %137 = getelementptr inbounds nuw %struct.ThreadData, ptr %136, i32 0, i32 3
  %138 = load ptr, ptr %137, align 8, !tbaa !98
  %139 = getelementptr inbounds nuw %struct.AVFrame, ptr %138, i32 0, i32 0
  %140 = load i32, ptr %11, align 4, !tbaa !44
  %141 = sext i32 %140 to i64
  %142 = getelementptr inbounds [8 x ptr], ptr %139, i64 0, i64 %141
  %143 = load ptr, ptr %142, align 8, !tbaa !53
  %144 = load i32, ptr %19, align 4, !tbaa !44
  %145 = sext i32 %144 to i64
  %146 = load i64, ptr %16, align 8, !tbaa !108
  %147 = mul nsw i64 %145, %146
  %148 = getelementptr inbounds i8, ptr %143, i64 %147
  store ptr %148, ptr %24, align 8, !tbaa !53
  %149 = load i32, ptr %11, align 4, !tbaa !44
  %150 = shl i32 1, %149
  %151 = load ptr, ptr %9, align 8, !tbaa !22
  %152 = getelementptr inbounds nuw %struct.MaskedMinMaxContext, ptr %151, i32 0, i32 1
  %153 = load i32, ptr %152, align 8, !tbaa !109
  %154 = and i32 %150, %153
  %155 = icmp ne i32 %154, 0
  br i1 %155, label %172, label %156

156:                                              ; preds = %37
  %157 = load ptr, ptr %24, align 8, !tbaa !53
  %158 = load i64, ptr %16, align 8, !tbaa !108
  %159 = trunc i64 %158 to i32
  %160 = load ptr, ptr %21, align 8, !tbaa !53
  %161 = load i64, ptr %13, align 8, !tbaa !108
  %162 = trunc i64 %161 to i32
  %163 = load ptr, ptr %9, align 8, !tbaa !22
  %164 = getelementptr inbounds nuw %struct.MaskedMinMaxContext, ptr %163, i32 0, i32 3
  %165 = load i32, ptr %11, align 4, !tbaa !44
  %166 = sext i32 %165 to i64
  %167 = getelementptr inbounds [4 x i32], ptr %164, i64 0, i64 %166
  %168 = load i32, ptr %167, align 4, !tbaa !44
  %169 = load i32, ptr %20, align 4, !tbaa !44
  %170 = load i32, ptr %19, align 4, !tbaa !44
  %171 = sub nsw i32 %169, %170
  call void @av_image_copy_plane(ptr noundef %157, i32 noundef %159, ptr noundef %160, i32 noundef %162, i32 noundef %168, i32 noundef %171)
  store i32 4, ptr %12, align 4
  br label %204

172:                                              ; preds = %37
  call void @llvm.lifetime.start.p0(i64 4, ptr %25) #9
  %173 = load i32, ptr %19, align 4, !tbaa !44
  store i32 %173, ptr %25, align 4, !tbaa !44
  br label %174

174:                                              ; preds = %200, %172
  %175 = load i32, ptr %25, align 4, !tbaa !44
  %176 = load i32, ptr %20, align 4, !tbaa !44
  %177 = icmp slt i32 %175, %176
  br i1 %177, label %179, label %178

178:                                              ; preds = %174
  store i32 5, ptr %12, align 4
  call void @llvm.lifetime.end.p0(i64 4, ptr %25) #9
  br label %203

179:                                              ; preds = %174
  %180 = load ptr, ptr %9, align 8, !tbaa !22
  %181 = getelementptr inbounds nuw %struct.MaskedMinMaxContext, ptr %180, i32 0, i32 9
  %182 = load ptr, ptr %181, align 8, !tbaa !52
  %183 = load ptr, ptr %21, align 8, !tbaa !53
  %184 = load ptr, ptr %24, align 8, !tbaa !53
  %185 = load ptr, ptr %22, align 8, !tbaa !53
  %186 = load ptr, ptr %23, align 8, !tbaa !53
  %187 = load i32, ptr %17, align 4, !tbaa !44
  call void %182(ptr noundef %183, ptr noundef %184, ptr noundef %185, ptr noundef %186, i32 noundef %187)
  %188 = load i64, ptr %16, align 8, !tbaa !108
  %189 = load ptr, ptr %24, align 8, !tbaa !53
  %190 = getelementptr inbounds i8, ptr %189, i64 %188
  store ptr %190, ptr %24, align 8, !tbaa !53
  %191 = load i64, ptr %13, align 8, !tbaa !108
  %192 = load ptr, ptr %21, align 8, !tbaa !53
  %193 = getelementptr inbounds i8, ptr %192, i64 %191
  store ptr %193, ptr %21, align 8, !tbaa !53
  %194 = load i64, ptr %14, align 8, !tbaa !108
  %195 = load ptr, ptr %22, align 8, !tbaa !53
  %196 = getelementptr inbounds i8, ptr %195, i64 %194
  store ptr %196, ptr %22, align 8, !tbaa !53
  %197 = load i64, ptr %15, align 8, !tbaa !108
  %198 = load ptr, ptr %23, align 8, !tbaa !53
  %199 = getelementptr inbounds i8, ptr %198, i64 %197
  store ptr %199, ptr %23, align 8, !tbaa !53
  br label %200

200:                                              ; preds = %179
  %201 = load i32, ptr %25, align 4, !tbaa !44
  %202 = add nsw i32 %201, 1
  store i32 %202, ptr %25, align 4, !tbaa !44
  br label %174, !llvm.loop !110

203:                                              ; preds = %178
  store i32 0, ptr %12, align 4
  br label %204

204:                                              ; preds = %203, %156
  call void @llvm.lifetime.end.p0(i64 8, ptr %24) #9
  call void @llvm.lifetime.end.p0(i64 8, ptr %23) #9
  call void @llvm.lifetime.end.p0(i64 8, ptr %22) #9
  call void @llvm.lifetime.end.p0(i64 8, ptr %21) #9
  call void @llvm.lifetime.end.p0(i64 4, ptr %20) #9
  call void @llvm.lifetime.end.p0(i64 4, ptr %19) #9
  call void @llvm.lifetime.end.p0(i64 4, ptr %18) #9
  call void @llvm.lifetime.end.p0(i64 4, ptr %17) #9
  call void @llvm.lifetime.end.p0(i64 8, ptr %16) #9
  call void @llvm.lifetime.end.p0(i64 8, ptr %15) #9
  call void @llvm.lifetime.end.p0(i64 8, ptr %14) #9
  call void @llvm.lifetime.end.p0(i64 8, ptr %13) #9
  %205 = load i32, ptr %12, align 4
  switch i32 %205, label %211 [
    i32 0, label %206
    i32 4, label %207
  ]

206:                                              ; preds = %204
  br label %207

207:                                              ; preds = %206, %204
  %208 = load i32, ptr %11, align 4, !tbaa !44
  %209 = add nsw i32 %208, 1
  store i32 %209, ptr %11, align 4, !tbaa !44
  br label %30, !llvm.loop !111

210:                                              ; preds = %36
  store i32 1, ptr %12, align 4
  call void @llvm.lifetime.end.p0(i64 8, ptr %10) #9
  call void @llvm.lifetime.end.p0(i64 8, ptr %9) #9
  ret i32 0

211:                                              ; preds = %204
  unreachable
}