; Function Attrs: nounwind uwtable
define internal noundef i32 @maskedminmax_slice(ptr noundef readonly captures(none) %0, ptr noundef readonly captures(none) %1, i32 noundef %2, i32 noundef %3) #3 {
  %5 = getelementptr inbounds nuw i8, ptr %0, i64 72
  %6 = load ptr, ptr %5, align 8, !tbaa !4
  %7 = getelementptr inbounds nuw i8, ptr %6, i64 64
  %8 = load i32, ptr %7, align 8, !tbaa !35
  %9 = icmp sgt i32 %8, 0
  br i1 %9, label %.lr.ph77, label %._crit_edge

.lr.ph77:                                         ; preds = %4
  %10 = getelementptr inbounds nuw i8, ptr %1, i64 8
  %11 = getelementptr inbounds nuw i8, ptr %1, i64 16
  %12 = getelementptr inbounds nuw i8, ptr %1, i64 24
  %13 = getelementptr inbounds nuw i8, ptr %6, i64 32
  %14 = getelementptr inbounds nuw i8, ptr %6, i64 48
  %15 = add nsw i32 %2, 1
  %16 = getelementptr inbounds nuw i8, ptr %6, i64 8
  %17 = getelementptr inbounds nuw i8, ptr %6, i64 168
  %18 = getelementptr inbounds nuw i8, ptr %6, i64 16
  br label %19

._crit_edge:                                      ; preds = %.loopexit, %4
  ret i32 0

19:                                               ; preds = %.lr.ph77, %.loopexit
  %indvars.iv = phi i64 [ 0, %.lr.ph77 ], [ %indvars.iv.next, %.loopexit ]
  %20 = load ptr, ptr %1, align 8, !tbaa !78
  %21 = getelementptr inbounds nuw i8, ptr %20, i64 64
  %22 = getelementptr inbounds nuw [8 x i32], ptr %21, i64 0, i64 %indvars.iv
  %23 = load i32, ptr %22, align 4, !tbaa !41
  %24 = sext i32 %23 to i64
  %25 = load ptr, ptr %10, align 8, !tbaa !80
  %26 = getelementptr inbounds nuw i8, ptr %25, i64 64
  %27 = getelementptr inbounds nuw [8 x i32], ptr %26, i64 0, i64 %indvars.iv
  %28 = load i32, ptr %27, align 4, !tbaa !41
  %29 = sext i32 %28 to i64
  %30 = load ptr, ptr %11, align 8, !tbaa !81
  %31 = getelementptr inbounds nuw i8, ptr %30, i64 64
  %32 = getelementptr inbounds nuw [8 x i32], ptr %31, i64 0, i64 %indvars.iv
  %33 = load i32, ptr %32, align 4, !tbaa !41
  %34 = sext i32 %33 to i64
  %35 = load ptr, ptr %12, align 8, !tbaa !82
  %36 = getelementptr inbounds nuw i8, ptr %35, i64 64
  %37 = getelementptr inbounds nuw [8 x i32], ptr %36, i64 0, i64 %indvars.iv
  %38 = load i32, ptr %37, align 4, !tbaa !41
  %39 = sext i32 %38 to i64
  %40 = getelementptr inbounds nuw [4 x i32], ptr %13, i64 0, i64 %indvars.iv
  %41 = load i32, ptr %40, align 4, !tbaa !41
  %42 = getelementptr inbounds nuw [4 x i32], ptr %14, i64 0, i64 %indvars.iv
  %43 = load i32, ptr %42, align 4, !tbaa !41
  %44 = mul nsw i32 %43, %2
  %45 = sdiv i32 %44, %3
  %46 = mul nsw i32 %43, %15
  %47 = sdiv i32 %46, %3
  %48 = getelementptr inbounds nuw [8 x ptr], ptr %20, i64 0, i64 %indvars.iv
  %49 = load ptr, ptr %48, align 8, !tbaa !89
  %50 = sext i32 %45 to i64
  %51 = mul nsw i64 %50, %24
  %52 = getelementptr inbounds i8, ptr %49, i64 %51
  %53 = getelementptr inbounds nuw [8 x ptr], ptr %35, i64 0, i64 %indvars.iv
  %54 = load ptr, ptr %53, align 8, !tbaa !89
  %55 = mul nsw i64 %50, %39
  %56 = getelementptr inbounds i8, ptr %54, i64 %55
  %57 = trunc nuw nsw i64 %indvars.iv to i32
  %58 = shl nuw i32 1, %57
  %59 = load i32, ptr %16, align 8, !tbaa !90
  %60 = and i32 %59, %58
  %.not = icmp eq i32 %60, 0
  br i1 %.not, label %61, label %65

61:                                               ; preds = %19
  %62 = getelementptr inbounds nuw [4 x i32], ptr %18, i64 0, i64 %indvars.iv
  %63 = load i32, ptr %62, align 4, !tbaa !41
  %64 = sub nsw i32 %47, %45
  tail call void @av_image_copy_plane(ptr noundef %56, i32 noundef %38, ptr noundef %52, i32 noundef %23, i32 noundef %63, i32 noundef %64) #9
  br label %.loopexit

65:                                               ; preds = %19
  %66 = icmp slt i32 %45, %47
  br i1 %66, label %.lr.ph.preheader, label %.loopexit

.lr.ph.preheader:                                 ; preds = %65
  %67 = getelementptr inbounds nuw [8 x ptr], ptr %25, i64 0, i64 %indvars.iv
  %68 = load ptr, ptr %67, align 8, !tbaa !89
  %69 = mul nsw i64 %50, %29
  %70 = getelementptr inbounds i8, ptr %68, i64 %69
  %71 = getelementptr inbounds nuw [8 x ptr], ptr %30, i64 0, i64 %indvars.iv
  %72 = load ptr, ptr %71, align 8, !tbaa !89
  %73 = mul nsw i64 %50, %34
  %74 = getelementptr inbounds i8, ptr %72, i64 %73
  br label %.lr.ph

.lr.ph:                                           ; preds = %.lr.ph.preheader, %.lr.ph
  %.075 = phi i32 [ %80, %.lr.ph ], [ %45, %.lr.ph.preheader ]
  %.06674 = phi ptr [ %76, %.lr.ph ], [ %56, %.lr.ph.preheader ]
  %.06773 = phi ptr [ %79, %.lr.ph ], [ %74, %.lr.ph.preheader ]
  %.06872 = phi ptr [ %78, %.lr.ph ], [ %70, %.lr.ph.preheader ]
  %.06971 = phi ptr [ %77, %.lr.ph ], [ %52, %.lr.ph.preheader ]
  %75 = load ptr, ptr %17, align 8, !tbaa !45
  tail call void %75(ptr noundef %.06971, ptr noundef %.06674, ptr noundef %.06872, ptr noundef %.06773, i32 noundef %41) #9
  %76 = getelementptr inbounds i8, ptr %.06674, i64 %39
  %77 = getelementptr inbounds i8, ptr %.06971, i64 %24
  %78 = getelementptr inbounds i8, ptr %.06872, i64 %29
  %79 = getelementptr inbounds i8, ptr %.06773, i64 %34
  %80 = add i32 %.075, 1
  %exitcond.not = icmp eq i32 %80, %47
  br i1 %exitcond.not, label %.loopexit, label %.lr.ph, !llvm.loop !91

.loopexit:                                        ; preds = %.lr.ph, %65, %61
  %indvars.iv.next = add nuw nsw i64 %indvars.iv, 1
  %81 = load i32, ptr %7, align 8, !tbaa !35
  %82 = sext i32 %81 to i64
  %83 = icmp slt i64 %indvars.iv.next, %82
  br i1 %83, label %19, label %._crit_edge, !llvm.loop !92
}